; Function Attrs: nounwind uwtable
define internal void @surfaceHandleLeave(ptr noundef %0, ptr readnone captures(none) %1, ptr noundef %2) #0 {
  %4 = load ptr, ptr getelementptr inbounds nuw (i8, ptr @_glfw, i64 137504), align 8, !tbaa !180
  %5 = tail call ptr %4(ptr noundef %2) #20
  %.not = icmp eq ptr %5, getelementptr inbounds nuw (i8, ptr @_glfw, i64 134088)
  br i1 %.not, label %.preheader, label %21

.preheader:                                       ; preds = %3
  %6 = getelementptr inbounds nuw i8, ptr %0, i64 1040
  %7 = load i64, ptr %6, align 8, !tbaa !129
  %.not20 = icmp eq i64 %7, 0
  br i1 %.not20, label %.loopexit, label %.lr.ph

.lr.ph:                                           ; preds = %.preheader
  %8 = getelementptr inbounds nuw i8, ptr %0, i64 1032
  %9 = load ptr, ptr %8, align 8, !tbaa !131
  br label %12

10:                                               ; preds = %12
  %11 = add nuw i64 %.019, 1
  %exitcond.not = icmp eq i64 %11, %7
  br i1 %exitcond.not, label %.loopexit, label %12

12:                                               ; preds = %.lr.ph, %10
  %.019 = phi i64 [ 0, %.lr.ph ], [ %11, %10 ]
  %13 = getelementptr inbounds nuw %struct._GLFWscaleWayland, ptr %9, i64 %.019
  %14 = load ptr, ptr %13, align 8, !tbaa !392
  %15 = icmp eq ptr %14, %2
  br i1 %15, label %16, label %10

16:                                               ; preds = %12
  %17 = getelementptr %struct._GLFWscaleWayland, ptr %9, i64 %7
  %18 = getelementptr i8, ptr %17, i64 -16
  tail call void @llvm.memcpy.p0.p0.i64(ptr noundef nonnull align 8 dereferenceable(16) %13, ptr noundef nonnull align 8 dereferenceable(16) %18, i64 16, i1 false), !tbaa.struct !393
  %19 = load i64, ptr %6, align 8, !tbaa !129
  %20 = add i64 %19, -1
  store i64 %20, ptr %6, align 8, !tbaa !129
  br label %.loopexit

.loopexit:                                        ; preds = %10, %.preheader, %16
  tail call void @_glfwUpdateBufferScaleFromOutputsWayland(ptr noundef nonnull %0)
  br label %21

21:                                               ; preds = %3, %.loopexit
  ret void
}